(dp1
S'output'
p2
S"<class 'httplib.BadStatusLine'> No status line received - the server has closed the connection"
p3
sS'layer'
p4
S'/Users/jonathan/Desktop/Programmi/web2py/applications/admin/controllers/default.py'
p5
sS'code'
p6
S'<code object <module> at 0x10c0d2230, file "/Users/jonathan/Desktop/Programmi/web2py/applications/admin/controllers/default.py", line 3>'
p7
sS'snapshot'
p8
(dp9
S'exception'
p10
(dp11
S'__module__'
p12
S"'httplib'"
p13
sS'__getslice__'
p14
S"<method-wrapper '__getslice__' of BadStatusLine object>"
p15
sS'__str__'
p16
S"<method-wrapper '__str__' of BadStatusLine object>"
p17
sS'__reduce__'
p18
S'<built-in method __reduce__ of BadStatusLine object>'
p19
sS'__dict__'
p20
S"{'line': 'No status line received - the server has closed the connection'}"
p21
sS'__sizeof__'
p22
S'<built-in method __sizeof__ of BadStatusLine object>'
p23
sS'__weakref__'
p24
S'None'
p25
sS'message'
p26
S"''"
p27
sS'__init__'
p28
S"<bound method BadStatusLine.__init__ of BadStatu...ceived - the server has closed the connection',)>"
p29
sS'__setattr__'
p30
S"<method-wrapper '__setattr__' of BadStatusLine object>"
p31
sS'__reduce_ex__'
p32
S'<built-in method __reduce_ex__ of BadStatusLine object>'
p33
sS'__new__'
p34
S'<built-in method __new__ of type object>'
p35
sS'__format__'
p36
S'<built-in method __format__ of BadStatusLine object>'
p37
sS'__class__'
p38
S"<class 'httplib.BadStatusLine'>"
p39
sS'__doc__'
p40
S'None'
p41
sS'__getitem__'
p42
S"<method-wrapper '__getitem__' of BadStatusLine object>"
p43
sS'__setstate__'
p44
S'<built-in method __setstate__ of BadStatusLine object>'
p45
sS'__getattribute__'
p46
S"<method-wrapper '__getattribute__' of BadStatusLine object>"
p47
sS'args'
p48
S"('No status line received - the server has closed the connection',)"
p49
sS'__subclasshook__'
p50
S'<built-in method __subclasshook__ of type object>'
p51
sS'line'
p52
S"'No status line received - the server has closed the connection'"
p53
sS'__unicode__'
p54
S'<built-in method __unicode__ of BadStatusLine object>'
p55
sS'__delattr__'
p56
S"<method-wrapper '__delattr__' of BadStatusLine object>"
p57
sS'__repr__'
p58
S"<method-wrapper '__repr__' of BadStatusLine object>"
p59
sS'__hash__'
p60
S"<method-wrapper '__hash__' of BadStatusLine object>"
p61
ssS'evalue'
p62
S'No status line received - the server has closed the connection'
p63
sS'request'
p64
cgluon.html
XML_unpickle
p65
(S'sa]\x00\x00<div><table><tr><td style="font-weight:bold;vertical-align:top;">ajax</td><td style="vertical-align:top;">:</td><td><div>True</div></td></tr><tr><td style="font-weight:bold;vertical-align:top;">application</td><td style="vertical-align:top;">:</td><td><div>admin</div></td></tr><tr><td style="font-weight:bold;vertical-align:top;">args</td><td style="vertical-align:top;">:</td><td><div><table></table></div></td></tr><tr><td style="font-weight:bold;vertical-align:top;">cid</td><td style="vertical-align:top;">:</td><td><div>None</div></td></tr><tr><td style="font-weight:bold;vertical-align:top;">client</td><td style="vertical-align:top;">:</td><td><div>127.0.0.1</div></td></tr><tr><td style="font-weight:bold;vertical-align:top;">controller</td><td style="vertical-align:top;">:</td><td><div>default</div></td></tr><tr><td style="font-weight:bold;vertical-align:top;">cookies</td><td style="vertical-align:top;">:</td><td><div><table><tr><td style="font-weight:bold;vertical-align:top;">session_id_admin</td><td style="vertical-align:top;">:</td><td><div>127.0.0.1-ecd85f08-9be1-4a0b-b050-8d896748ede7<table><tr><td style="font-weight:bold;vertical-align:top;">comment</td><td style="vertical-align:top;">:</td><td><div></div></td></tr><tr><td style="font-weight:bold;vertical-align:top;">domain</td><td style="vertical-align:top;">:</td><td><div></div></td></tr><tr><td style="font-weight:bold;vertical-align:top;">expires</td><td style="vertical-align:top;">:</td><td><div></div></td></tr><tr><td style="font-weight:bold;vertical-align:top;">httponly</td><td style="vertical-align:top;">:</td><td><div></div></td></tr><tr><td style="font-weight:bold;vertical-align:top;">max-age</td><td style="vertical-align:top;">:</td><td><div></div></td></tr><tr><td style="font-weight:bold;vertical-align:top;">path</td><td style="vertical-align:top;">:</td><td><div></div></td></tr><tr><td style="font-weight:bold;vertical-align:top;">samesite</td><td style="vertical-align:top;">:</td><td><div></div></td></tr><tr><td style="font-weight:bold;vertical-align:top;">secure</td><td style="vertical-align:top;">:</td><td><div></div></td></tr><tr><td style="font-weight:bold;vertical-align:top;">version</td><td style="vertical-align:top;">:</td><td><div></div></td></tr></table></div></td></tr><tr><td style="font-weight:bold;vertical-align:top;">session_id_welcome</td><td style="vertical-align:top;">:</td><td><div>127.0.0.1-a7c63d92-dd3e-4c8a-940f-4d47b71922c9<table><tr><td style="font-weight:bold;vertical-align:top;">comment</td><td style="vertical-align:top;">:</td><td><div></div></td></tr><tr><td style="font-weight:bold;vertical-align:top;">domain</td><td style="vertical-align:top;">:</td><td><div></div></td></tr><tr><td style="font-weight:bold;vertical-align:top;">expires</td><td style="vertical-align:top;">:</td><td><div></div></td></tr><tr><td style="font-weight:bold;vertical-align:top;">httponly</td><td style="vertical-align:top;">:</td><td><div></div></td></tr><tr><td style="font-weight:bold;vertical-align:top;">max-age</td><td style="vertical-align:top;">:</td><td><div></div></td></tr><tr><td style="font-weight:bold;vertical-align:top;">path</td><td style="vertical-align:top;">:</td><td><div></div></td></tr><tr><td style="font-weight:bold;vertical-align:top;">samesite</td><td style="vertical-align:top;">:</td><td><div></div></td></tr><tr><td style="font-weight:bold;vertical-align:top;">secure</td><td style="vertical-align:top;">:</td><td><div></div></td></tr><tr><td style="font-weight:bold;vertical-align:top;">version</td><td style="vertical-align:top;">:</td><td><div></div></td></tr></table></div></td></tr></table></div></td></tr><tr><td style="font-weight:bold;vertical-align:top;">env</td><td style="vertical-align:top;">:</td><td><div><table><tr><td style="font-weight:bold;vertical-align:top;">CONTENT_LENGTH</td><td style="vertical-align:top;">:</td><td><div>0</div></td></tr><tr><td style="font-weight:bold;vertical-align:top;">HTTP_ACCEPT</td><td style="vertical-align:top;">:</td><td><div>*/*</div></td></tr><tr><td style="font-weight:bold;vertical-align:top;">HTTP_ACCEPT_ENCODING</td><td style="vertical-align:top;">:</td><td><div>gzip, deflate</div></td></tr><tr><td style="font-weight:bold;vertical-align:top;">HTTP_ACCEPT_LANGUAGE</td><td style="vertical-align:top;">:</td><td><div>it-IT,it;q=0.8,en-US;q=0.5,en;q=0.3</div></td></tr><tr><td style="font-weight:bold;vertical-align:top;">HTTP_CONNECTION</td><td style="vertical-align:top;">:</td><td><div>keep-alive</div></td></tr><tr><td style="font-weight:bold;vertical-align:top;">HTTP_CONTENT_LENGTH</td><td style="vertical-align:top;">:</td><td><div>0</div></td></tr><tr><td style="font-weight:bold;vertical-align:top;">HTTP_COOKIE</td><td style="vertical-align:top;">:</td><td><div>session_id_welcome=127.0.0.1-a7c63d92-dd3e-4c8a-940f-4d47b71922c9; session_id_admin=127.0.0.1-ecd85f08-9be1-4a0b-b050-8d896748ede7</div></td></tr><tr><td style="font-weight:bold;vertical-align:top;">HTTP_DNT</td><td style="vertical-align:top;">:</td><td><div>1</div></td></tr><tr><td style="font-weight:bold;vertical-align:top;">HTTP_HOST</td><td style="vertical-align:top;">:</td><td><div>127.0.0.1:1717</div></td></tr><tr><td style="font-weight:bold;vertical-align:top;">HTTP_ORIGIN</td><td style="vertical-align:top;">:</td><td><div>http://127.0.0.1:1717</div></td></tr><tr><td style="font-weight:bold;vertical-align:top;">HTTP_REFERER</td><td style="vertical-align:top;">:</td><td><div>http://127.0.0.1:1717/admin/default/site</div></td></tr><tr><td style="font-weight:bold;vertical-align:top;">HTTP_USER_AGENT</td><td style="vertical-align:top;">:</td><td><div>Mozilla/5.0 (Macintosh; Intel Mac OS X 10.13; rv:72.0) Gecko/20100101 Firefox/72.0</div></td></tr><tr><td style="font-weight:bold;vertical-align:top;">HTTP_X_REQUESTED_WITH</td><td style="vertical-align:top;">:</td><td><div>XMLHttpRequest</div></td></tr><tr><td style="font-weight:bold;vertical-align:top;">PATH_INFO</td><td style="vertical-align:top;">:</td><td><div>/admin/default/check_version</div></td></tr><tr><td style="font-weight:bold;vertical-align:top;">QUERY_STRING</td><td style="vertical-align:top;">:</td><td><div></div></td></tr><tr><td style="font-weight:bold;vertical-align:top;">REMOTE_ADDR</td><td style="vertical-align:top;">:</td><td><div>127.0.0.1</div></td></tr><tr><td style="font-weight:bold;vertical-align:top;">REMOTE_PORT</td><td style="vertical-align:top;">:</td><td><div>51169</div></td></tr><tr><td style="font-weight:bold;vertical-align:top;">REQUEST_METHOD</td><td style="vertical-align:top;">:</td><td><div>POST</div></td></tr><tr><td style="font-weight:bold;vertical-align:top;">SCRIPT_NAME</td><td style="vertical-align:top;">:</td><td><div></div></td></tr><tr><td style="font-weight:bold;vertical-align:top;">SERVER_NAME</td><td style="vertical-align:top;">:</td><td><div>MacBook-Pro-di-Jonathan.local</div></td></tr><tr><td style="font-weight:bold;vertical-align:top;">SERVER_PORT</td><td style="vertical-align:top;">:</td><td><div>1717</div></td></tr><tr><td style="font-weight:bold;vertical-align:top;">SERVER_PROTOCOL</td><td style="vertical-align:top;">:</td><td><div>HTTP/1.1</div></td></tr><tr><td style="font-weight:bold;vertical-align:top;">SERVER_SOFTWARE</td><td style="vertical-align:top;">:</td><td><div>Rocket 1.2.6</div></td></tr><tr><td style="font-weight:bold;vertical-align:top;">app_folders</td><td style="vertical-align:top;">:</td><td><div>set([&#x27;/Users/jonathan/Desktop/Programmi/web2py/applications/admin&#x27;, &#x27;/Users/jonathan/Desktop/Programmi/web2py/applications/welcome&#x27;])</div></td></tr><tr><td style="font-weight:bold;vertical-align:top;">applications_parent</td><td style="vertical-align:top;">:</td><td><div>/Users/jonathan/Desktop/Programmi/web2py</div></td></tr><tr><td style="font-weight:bold;vertical-align:top;">cmd_args</td><td style="vertical-align:top;">:</td><td><div><table></table></div></td></tr><tr><td style="font-weight:bold;vertical-align:top;">cmd_options</td><td style="vertical-align:top;">:</td><td><div>&lt;Values at 0x104dc8eb0: {&#x27;verbose&#x27;: False, &#x27;ip&#x27;: &#x27;127.0.0.1&#x27;, &#x27;debuglevel&#x27;: 30, &#x27;with_scheduler&#x27;: False, &#x27;shutdown_timeout&#x27;: 5, &#x27;taskbar&#x27;: False, &#x27;with_coverage&#x27;: False, &#x27;pid_filename&#x27;: &#x27;httpserver.pid&#x27;, &#x27;maxthreads&#x27;: None, &#x27;softcron&#x27;: False, &#x27;server_name&#x27;: &#x27;MacBook-Pro-di-Jonathan.local&#x27;, &#x27;bpython&#x27;: False, &#x27;nogui&#x27;: False, &#x27;port&#x27;: 8000, &#x27;print_errors&#x27;: False, &#x27;extcron&#x27;: False, &#x27;runcron&#x27;: False, &#x27;run_system_tests&#x27;: False, &#x27;test&#x27;: None, &#x27;folder&#x27;: &#x27;/Users/jonathan/Desktop/Programmi/web2py&#x27;, &#x27;config&#x27;: &#x27;&#x27;, &#x27;minthreads&#x27;: None, &#x27;shell&#x27;: None, &#x27;run&#x27;: &#x27;&#x27;, &#x27;log_filename&#x27;: &#x27;httpserver.log&#x27;, &#x27;profiler_dir&#x27;: None, &#x27;args&#x27;: [], &#x27;socket_timeout&#x27;: 5, &#x27;ssl_ca_certificate&#x27;: None, &#x27;scheduler&#x27;: None, &#x27;interfaces&#x27;: None, &#x27;ssl_private_key&#x27;: &#x27;&#x27;, &#x27;gae&#x27;: None, &#x27;password&#x27;: &#x27;******&#x27;, &#x27;request_queue_size&#x27;: 5, &#x27;ssl_certificate&#x27;: &#x27;&#x27;, &#x27;cronjob&#x27;: False, &#x27;numthreads&#x27;: None, &#x27;quiet&#x27;: False, &#x27;import_models&#x27;: False, &#x27;timeout&#x27;: 10, &#x27;plain&#x27;: False, &#x27;nobanner&#x27;: False}&gt;</div></td></tr><tr><td style="font-weight:bold;vertical-align:top;">content_length</td><td style="vertical-align:top;">:</td><td><div>0</div></td></tr><tr><td style="font-weight:bold;vertical-align:top;">db_sessions</td><td style="vertical-align:top;">:</td><td><div>set([])</div></td></tr><tr><td style="font-weight:bold;vertical-align:top;">debugging</td><td style="vertical-align:top;">:</td><td><div>False</div></td></tr><tr><td style="font-weight:bold;vertical-align:top;">gluon_parent</td><td style="vertical-align:top;">:</td><td><div>/Users/jonathan/Desktop/Programmi/web2py</div></td></tr><tr><td style="font-weight:bold;vertical-align:top;">http_accept</td><td style="vertical-align:top;">:</td><td><div>*/*</div></td></tr><tr><td style="font-weight:bold;vertical-align:top;">http_accept_encoding</td><td style="vertical-align:top;">:</td><td><div>gzip, deflate</div></td></tr><tr><td style="font-weight:bold;vertical-align:top;">http_accept_language</td><td style="vertical-align:top;">:</td><td><div>it-IT,it;q=0.8,en-US;q=0.5,en;q=0.3</div></td></tr><tr><td style="font-weight:bold;vertical-align:top;">http_connection</td><td style="vertical-align:top;">:</td><td><div>keep-alive</div></td></tr><tr><td style="font-weight:bold;vertical-align:top;">http_content_length</td><td style="vertical-align:top;">:</td><td><div>0</div></td></tr><tr><td style="font-weight:bold;vertical-align:top;">http_cookie</td><td style="vertical-align:top;">:</td><td><div>session_id_welcome=127.0.0.1-a7c63d92-dd3e-4c8a-940f-4d47b71922c9; session_id_admin=127.0.0.1-ecd85f08-9be1-4a0b-b050-8d896748ede7</div></td></tr><tr><td style="font-weight:bold;vertical-align:top;">http_dnt</td><td style="vertical-align:top;">:</td><td><div>1</div></td></tr><tr><td style="font-weight:bold;vertical-align:top;">http_host</td><td style="vertical-align:top;">:</td><td><div>127.0.0.1:1717</div></td></tr><tr><td style="font-weight:bold;vertical-align:top;">http_origin</td><td style="vertical-align:top;">:</td><td><div>http://127.0.0.1:1717</div></td></tr><tr><td style="font-weight:bold;vertical-align:top;">http_referer</td><td style="vertical-align:top;">:</td><td><div>http://127.0.0.1:1717/admin/default/site</div></td></tr><tr><td style="font-weight:bold;vertical-align:top;">http_user_agent</td><td style="vertical-align:top;">:</td><td><div>Mozilla/5.0 (Macintosh; Intel Mac OS X 10.13; rv:72.0) Gecko/20100101 Firefox/72.0</div></td></tr><tr><td style="font-weight:bold;vertical-align:top;">http_x_requested_with</td><td style="vertical-align:top;">:</td><td><div>XMLHttpRequest</div></td></tr><tr><td style="font-weight:bold;vertical-align:top;">is_jython</td><td style="vertical-align:top;">:</td><td><div>False</div></td></tr><tr><td style="font-weight:bold;vertical-align:top;">is_py2</td><td style="vertical-align:top;">:</td><td><div>True</div></td></tr><tr><td style="font-weight:bold;vertical-align:top;">is_pypy</td><td style="vertical-align:top;">:</td><td><div>False</div></td></tr><tr><td style="font-weight:bold;vertical-align:top;">is_source</td><td style="vertical-align:top;">:</td><td><div>True</div></td></tr><tr><td style="font-weight:bold;vertical-align:top;">local_hosts</td><td style="vertical-align:top;">:</td><td><div><table><tr><td><div>fe80::8ab:1aa9:4568:8f7b%en0</div></td></tr><tr><td><div>172.20.10.2</div></td></tr><tr><td><div>::ffff:127.0.0.1</div></td></tr><tr><td><div>::1</div></td></tr><tr><td><div>MacBook-Pro-di-Jonathan.local</div></td></tr><tr><td><div>127.0.0.1</div></td></tr></table></div></td></tr><tr><td style="font-weight:bold;vertical-align:top;">path_info</td><td style="vertical-align:top;">:</td><td><div>/admin/default/check_version</div></td></tr><tr><td style="font-weight:bold;vertical-align:top;">query_string</td><td style="vertical-align:top;">:</td><td><div></div></td></tr><tr><td style="font-weight:bold;vertical-align:top;">remote_addr</td><td style="vertical-align:top;">:</td><td><div>127.0.0.1</div></td></tr><tr><td style="font-weight:bold;vertical-align:top;">remote_port</td><td style="vertical-align:top;">:</td><td><div>51169</div></td></tr><tr><td style="font-weight:bold;vertical-align:top;">request_method</td><td style="vertical-align:top;">:</td><td><div>POST</div></td></tr><tr><td style="font-weight:bold;vertical-align:top;">request_uri</td><td style="vertical-align:top;">:</td><td><div>/admin/default/check_version</div></td></tr><tr><td style="font-weight:bold;vertical-align:top;">script_name</td><td style="vertical-align:top;">:</td><td><div></div></td></tr><tr><td style="font-weight:bold;vertical-align:top;">server_name</td><td style="vertical-align:top;">:</td><td><div>MacBook-Pro-di-Jonathan.local</div></td></tr><tr><td style="font-weight:bold;vertical-align:top;">server_port</td><td style="vertical-align:top;">:</td><td><div>1717</div></td></tr><tr><td style="font-weight:bold;vertical-align:top;">server_protocol</td><td style="vertical-align:top;">:</td><td><div>HTTP/1.1</div></td></tr><tr><td style="font-weight:bold;vertical-align:top;">server_software</td><td style="vertical-align:top;">:</td><td><div>Rocket 1.2.6</div></td></tr><tr><td style="font-weight:bold;vertical-align:top;">web2py_path</td><td style="vertical-align:top;">:</td><td><div>/Users/jonathan/Desktop/Programmi/web2py</div></td></tr><tr><td style="font-weight:bold;vertical-align:top;">web2py_version</td><td style="vertical-align:top;">:</td><td><div>2.18.5-stable+timestamp.2019.04.08.04.22.03</div></td></tr><tr><td style="font-weight:bold;vertical-align:top;">wsgi.errors</td><td style="vertical-align:top;">:</td><td><div>&lt;open file &#x27;&lt;stderr&gt;&#x27;, mode &#x27;w&#x27; at 0x103bd2270&gt;</div></td></tr><tr><td style="font-weight:bold;vertical-align:top;">wsgi.file_wrapper</td><td style="vertical-align:top;">:</td><td><div>&lt;class wsgiref.util.FileWrapper at 0x104d8d0c0&gt;</div></td></tr><tr><td style="font-weight:bold;vertical-align:top;">wsgi.input</td><td style="vertical-align:top;">:</td><td><div>&lt;socket._fileobject object at 0x10bf81dd0&gt;</div></td></tr><tr><td style="font-weight:bold;vertical-align:top;">wsgi.multiprocess</td><td style="vertical-align:top;">:</td><td><div>False</div></td></tr><tr><td style="font-weight:bold;vertical-align:top;">wsgi.multithread</td><td style="vertical-align:top;">:</td><td><div>True</div></td></tr><tr><td style="font-weight:bold;vertical-align:top;">wsgi.run_once</td><td style="vertical-align:top;">:</td><td><div>False</div></td></tr><tr><td style="font-weight:bold;vertical-align:top;">wsgi.url_scheme</td><td style="vertical-align:top;">:</td><td><div>http</div></td></tr><tr><td style="font-weight:bold;vertical-align:top;">wsgi.version</td><td style="vertical-align:top;">:</td><td><div><table><tr><td><div>1</div></td></tr><tr><td><div>0</div></td></tr></table></div></td></tr><tr><td style="font-weight:bold;vertical-align:top;">wsgi_errors</td><td style="vertical-align:top;">:</td><td><div>&lt;open file &#x27;&lt;stderr&gt;&#x27;, mode &#x27;w&#x27; at 0x103bd2270&gt;</div></td></tr><tr><td style="font-weight:bold;vertical-align:top;">wsgi_file_wrapper</td><td style="vertical-align:top;">:</td><td><div>&lt;class wsgiref.util.FileWrapper at 0x104d8d0c0&gt;</div></td></tr><tr><td style="font-weight:bold;vertical-align:top;">wsgi_input</td><td style="vertical-align:top;">:</td><td><div>&lt;socket._fileobject object at 0x10bf81dd0&gt;</div></td></tr><tr><td style="font-weight:bold;vertical-align:top;">wsgi_multiprocess</td><td style="vertical-align:top;">:</td><td><div>False</div></td></tr><tr><td style="font-weight:bold;vertical-align:top;">wsgi_multithread</td><td style="vertical-align:top;">:</td><td><div>True</div></td></tr><tr><td style="font-weight:bold;vertical-align:top;">wsgi_run_once</td><td style="vertical-align:top;">:</td><td><div>False</div></td></tr><tr><td style="font-weight:bold;vertical-align:top;">wsgi_url_scheme</td><td style="vertical-align:top;">:</td><td><div>http</div></td></tr><tr><td style="font-weight:bold;vertical-align:top;">wsgi_version</td><td style="vertical-align:top;">:</td><td><div><table><tr><td><div>1</div></td></tr><tr><td><div>0</div></td></tr></table></div></td></tr></table></div></td></tr><tr><td style="font-weight:bold;vertical-align:top;">extension</td><td style="vertical-align:top;">:</td><td><div>html</div></td></tr><tr><td style="font-weight:bold;vertical-align:top;">folder</td><td style="vertical-align:top;">:</td><td><div>/Users/jonathan/Desktop/Programmi/web2py/applications/admin</div></td></tr><tr><td style="font-weight:bold;vertical-align:top;">function</td><td style="vertical-align:top;">:</td><td><div>check_version</div></td></tr><tr><td style="font-weight:bold;vertical-align:top;">global_settings</td><td style="vertical-align:top;">:</td><td><div><table><tr><td style="font-weight:bold;vertical-align:top;">app_folders</td><td style="vertical-align:top;">:</td><td><div>set([&#x27;/Users/jonathan/Desktop/Programmi/web2py/applications/admin&#x27;, &#x27;/Users/jonathan/Desktop/Programmi/web2py/applications/welcome&#x27;])</div></td></tr><tr><td style="font-weight:bold;vertical-align:top;">applications_parent</td><td style="vertical-align:top;">:</td><td><div>/Users/jonathan/Desktop/Programmi/web2py</div></td></tr><tr><td style="font-weight:bold;vertical-align:top;">cmd_args</td><td style="vertical-align:top;">:</td><td><div><table></table></div></td></tr><tr><td style="font-weight:bold;vertical-align:top;">cmd_options</td><td style="vertical-align:top;">:</td><td><div>&lt;Values at 0x104dc8eb0: {&#x27;verbose&#x27;: False, &#x27;ip&#x27;: &#x27;127.0.0.1&#x27;, &#x27;debuglevel&#x27;: 30, &#x27;with_scheduler&#x27;: False, &#x27;shutdown_timeout&#x27;: 5, &#x27;taskbar&#x27;: False, &#x27;with_coverage&#x27;: False, &#x27;pid_filename&#x27;: &#x27;httpserver.pid&#x27;, &#x27;maxthreads&#x27;: None, &#x27;softcron&#x27;: False, &#x27;server_name&#x27;: &#x27;MacBook-Pro-di-Jonathan.local&#x27;, &#x27;bpython&#x27;: False, &#x27;nogui&#x27;: False, &#x27;port&#x27;: 8000, &#x27;print_errors&#x27;: False, &#x27;extcron&#x27;: False, &#x27;runcron&#x27;: False, &#x27;run_system_tests&#x27;: False, &#x27;test&#x27;: None, &#x27;folder&#x27;: &#x27;/Users/jonathan/Desktop/Programmi/web2py&#x27;, &#x27;config&#x27;: &#x27;&#x27;, &#x27;minthreads&#x27;: None, &#x27;shell&#x27;: None, &#x27;run&#x27;: &#x27;&#x27;, &#x27;log_filename&#x27;: &#x27;httpserver.log&#x27;, &#x27;profiler_dir&#x27;: None, &#x27;args&#x27;: [], &#x27;socket_timeout&#x27;: 5, &#x27;ssl_ca_certificate&#x27;: None, &#x27;scheduler&#x27;: None, &#x27;interfaces&#x27;: None, &#x27;ssl_private_key&#x27;: &#x27;&#x27;, &#x27;gae&#x27;: None, &#x27;password&#x27;: &#x27;******&#x27;, &#x27;request_queue_size&#x27;: 5, &#x27;ssl_certificate&#x27;: &#x27;&#x27;, &#x27;cronjob&#x27;: False, &#x27;numthreads&#x27;: None, &#x27;quiet&#x27;: False, &#x27;import_models&#x27;: False, &#x27;timeout&#x27;: 10, &#x27;plain&#x27;: False, &#x27;nobanner&#x27;: False}&gt;</div></td></tr><tr><td style="font-weight:bold;vertical-align:top;">db_sessions</td><td style="vertical-align:top;">:</td><td><div>set([])</div></td></tr><tr><td style="font-weight:bold;vertical-align:top;">debugging</td><td style="vertical-align:top;">:</td><td><div>False</div></td></tr><tr><td style="font-weight:bold;vertical-align:top;">gluon_parent</td><td style="vertical-align:top;">:</td><td><div>/Users/jonathan/Desktop/Programmi/web2py</div></td></tr><tr><td style="font-weight:bold;vertical-align:top;">is_jython</td><td style="vertical-align:top;">:</td><td><div>False</div></td></tr><tr><td style="font-weight:bold;vertical-align:top;">is_py2</td><td style="vertical-align:top;">:</td><td><div>True</div></td></tr><tr><td style="font-weight:bold;vertical-align:top;">is_pypy</td><td style="vertical-align:top;">:</td><td><div>False</div></td></tr><tr><td style="font-weight:bold;vertical-align:top;">is_source</td><td style="vertical-align:top;">:</td><td><div>True</div></td></tr><tr><td style="font-weight:bold;vertical-align:top;">local_hosts</td><td style="vertical-align:top;">:</td><td><div><table><tr><td><div>fe80::8ab:1aa9:4568:8f7b%en0</div></td></tr><tr><td><div>172.20.10.2</div></td></tr><tr><td><div>::ffff:127.0.0.1</div></td></tr><tr><td><div>::1</div></td></tr><tr><td><div>MacBook-Pro-di-Jonathan.local</div></td></tr><tr><td><div>127.0.0.1</div></td></tr></table></div></td></tr><tr><td style="font-weight:bold;vertical-align:top;">web2py_version</td><td style="vertical-align:top;">:</td><td><div>2.18.5-stable+timestamp.2019.04.08.04.22.03</div></td></tr></table></div></td></tr><tr><td style="font-weight:bold;vertical-align:top;">is_https</td><td style="vertical-align:top;">:</td><td><div>False</div></td></tr><tr><td style="font-weight:bold;vertical-align:top;">is_local</td><td style="vertical-align:top;">:</td><td><div>True</div></td></tr><tr><td style="font-weight:bold;vertical-align:top;">is_restful</td><td style="vertical-align:top;">:</td><td><div>False</div></td></tr><tr><td style="font-weight:bold;vertical-align:top;">is_scheduler</td><td style="vertical-align:top;">:</td><td><div>False</div></td></tr><tr><td style="font-weight:bold;vertical-align:top;">is_shell</td><td style="vertical-align:top;">:</td><td><div>False</div></td></tr><tr><td style="font-weight:bold;vertical-align:top;">method</td><td style="vertical-align:top;">:</td><td><div>POST</div></td></tr><tr><td style="font-weight:bold;vertical-align:top;">now</td><td style="vertical-align:top;">:</td><td><div>datetime.datetime(2020, 2, 14, 13, 37, 20, 34971)</div></td></tr><tr><td style="font-weight:bold;vertical-align:top;">raw_args</td><td style="vertical-align:top;">:</td><td><div></div></td></tr><tr><td style="font-weight:bold;vertical-align:top;">raw_extension</td><td style="vertical-align:top;">:</td><td><div>None</div></td></tr><tr><td style="font-weight:bold;vertical-align:top;">url</td><td style="vertical-align:top;">:</td><td><div>/admin/default/check_version</div></td></tr><tr><td style="font-weight:bold;vertical-align:top;">utcnow</td><td style="vertical-align:top;">:</td><td><div>datetime.datetime(2020, 2, 14, 12, 37, 20, 34976)</div></td></tr><tr><td style="font-weight:bold;vertical-align:top;">wsgi</td><td style="vertical-align:top;">:</td><td><div>&lt;gluon.main.LazyWSGI object at 0x10c19fd10&gt;</div></td></tr></table></div>'
tRp66
sS'frames'
p67
(lp68
(dp69
S'file'
p70
S'/Users/jonathan/Desktop/Programmi/web2py/gluon/restricted.py'
p71
sS'dump'
p72
(dp73
S'environment'
p74
S"{'A': <class 'gluon.html.A'>, 'ANY_OF': <class 'pydal.validators.ANY_OF'>, 'ASSIGNJS': <function ASSIGNJS>, 'A_button': <function A_button>, 'B': <class 'gluon.html.B'>, 'BEAUTIFY': <class 'gluon.html.BEAUTIFY'>, 'BODY': <class 'gluon.html.BODY'>, 'BR': <class 'gluon.html.BR'>, 'BUTTON': <class 'gluon.html.BUTTON'>, 'CAT': <class 'gluon.html.CAT'>, ...}"
p75
sS'ccode'
p76
S'<code object <module> at 0x10c0d2230, file "/Use...plications/admin/controllers/default.py", line 3>'
p77
ssS'lnum'
p78
I219
sS'lines'
p79
(dp80
I214
S'    if environment is None:'
p81
sI215
S'        environment = {}'
p82
sI216
S"    environment['__file__'] = layer"
p83
sI217
S"    environment['__name__'] = '__restricted__'"
p84
sI218
S'    try:'
p85
sI219
S'        exec(ccode, environment)'
p86
sI220
S'    except HTTP:'
p87
sI221
S'        raise'
p88
sI222
S'    except RestrictedError:'
p89
sI223
S'        # do not encapsulate (obfuscate) the original RestrictedError'
p90
ssS'call'
p91
S'(ccode=<code object <module> at 0x10c0d2230, file "/Use...plications/admin/controllers/default.py", line 3>, environment={\'A\': <class \'gluon.html.A\'>, \'ANY_OF\': <class \'pydal.validators.ANY_OF\'>, \'ASSIGNJS\': <function ASSIGNJS>, \'A_button\': <function A_button>, \'B\': <class \'gluon.html.B\'>, \'BEAUTIFY\': <class \'gluon.html.BEAUTIFY\'>, \'BODY\': <class \'gluon.html.BODY\'>, \'BR\': <class \'gluon.html.BR\'>, \'BUTTON\': <class \'gluon.html.BUTTON\'>, \'CAT\': <class \'gluon.html.CAT\'>, ...}, layer=\'/Users/jonathan/Desktop/Programmi/web2py/applications/admin/controllers/default.py\', scode=<code object <module> at 0x10c0d2230, file "/Use...plications/admin/controllers/default.py", line 3>)'
p92
sS'func'
p93
S'restricted'
p94
sa(dp95
g70
S'/Users/jonathan/Desktop/Programmi/web2py/applications/admin/controllers/default.py'
p96
sg72
(dp97
sg78
I2021
sg79
(dp98
I2016
S'            session.flash = \\'
p99
sI2017
S'                T(\'unable to install plugin "%s"\', filename)'
p100
sI2018
S'        redirect(URL(f="plugins", args=[app, ]))'
p101
sI2019
S'    return dict(form=form, app=app, plugin=plugin, source=source)'
p102
sI2010
S'        else:'
p103
sI2011
S'            filename = "web2py.plugin.%s.w2p" % cleanpath(plugin)'
p104
sI2012
S'        if plugin_install(app, urlopen(source),'
p105
sI2013
S'                          request, filename):'
p106
sI2014
S"            session.flash = T('New plugin installed: %s', filename)"
p107
sI2015
S'        else:'
p108
ssg91
S'()'
p109
sg93
S'<module>'
p110
sa(dp111
g70
S'/Users/jonathan/Desktop/Programmi/web2py/gluon/globals.py'
p112
sg72
(dp113
S'self'
p114
S'undefined'
p115
sS'f'
S'<function check_version>'
p116
ssg78
I421
sg79
(dp117
I416
S"        self.flash = ''            # used by the default view layout"
p118
sI417
S'        self.meta = Storage()      # used by web2py_ajax.html'
p119
sI418
S'        self.menu = []             # used by the default view layout'
p120
sI419
S'        self.files = []            # used by web2py_ajax.html'
p121
sI420
S'        self._vars = None'
p122
sI421
S'        self._caller = lambda f: f()'
p123
sI422
S'        self._view_environment = None'
p124
sI423
S'        self._custom_commit = None'
p125
sI424
S'        self._custom_rollback = None'
p126
sI425
S"        self.generic_patterns = ['*']"
p127
ssg91
S'(f=<function check_version>)'
p128
sg93
S'<lambda>'
p129
sa(dp130
g70
S'/Users/jonathan/Desktop/Programmi/web2py/applications/admin/controllers/default.py'
p131
sg72
(dp132
S'global WEB2PY_VERSION_URL'
p133
S"'http://web2py.com/examples/default/version'"
p134
ssg78
I167
sg79
(dp135
I162
S''
sI163
S'    session.forget()'
p136
sI164
S'    session._unlock(response)'
p137
sI165
S''
sI166
S'    new_version, version = check_new_version(request.env.web2py_version,'
p138
sI167
S'                                             WEB2PY_VERSION_URL)'
p139
sI168
S''
sI169
S'    if new_version == -1:'
p140
sI170
S"        return A(T('Unable to check for upgrades'), _href=WEB2PY_URL)"
p141
sI171
S'    elif new_version != True:'
p142
ssg91
S'()'
p143
sg93
S'check_version'
p144
sa(dp145
g70
S'/Users/jonathan/Desktop/Programmi/web2py/gluon/admin.py'
p146
sg72
(dp147
S'global to_native'
p148
S'<function to_native>'
p149
sS'version'
p150
g115
sS'global urlopen'
p151
S'<function urlopen>'
p152
sS'version_url'
p153
S"'http://web2py.com/examples/default/version'"
p154
sS').read'
p155
g115
ssg78
I341
sg79
(dp156
I336
S'          version is up-to-date, -1 on error'
p157
sI337
S'        - version : the most up-to-version available'
p158
sI338
S''
sI339
S'    """'
p159
sI340
S'    try:'
p160
sI341
S'        version = to_native(urlopen(version_url).read())'
p161
sI342
S'        pversion = parse_version(version)'
p162
sI343
S'        pmyversion = parse_version(myversion)'
p163
sI344
S'    except IOError:'
p164
sI345
S'        import traceback'
p165
ssg91
S"(myversion='2.18.5-stable+timestamp.2019.04.08.04.22.03', version_url='http://web2py.com/examples/default/version')"
p166
sg93
S'check_new_version'
p167
sa(dp168
g70
S'/usr/local/Cellar/python@2/2.7.17_1/Frameworks/Python.framework/Versions/2.7/lib/python2.7/urllib2.py'
p169
sg72
(dp170
S'url'
p171
S"'http://web2py.com/examples/default/version'"
p172
sS'opener'
p173
S'<urllib2.OpenerDirector instance>'
p174
sS'data'
p175
S'None'
p176
sS'timeout'
p177
S'<object object>'
p178
sS'opener.open'
p179
S'<bound method OpenerDirector.open of <urllib2.OpenerDirector instance>>'
p180
ssg78
I154
sg79
(dp181
I149
S'        opener = build_opener(https_handler)'
p182
sI150
S'    elif _opener is None:'
p183
sI151
S'        _opener = opener = build_opener()'
p184
sI152
S'    else:'
p185
sI153
S'        opener = _opener'
p186
sI154
S'    return opener.open(url, data, timeout)'
p187
sI155
S''
sI156
S'def install_opener(opener):'
p188
sI157
S'    global _opener'
p189
sI158
S'    _opener = opener'
p190
ssg91
S"(url='http://web2py.com/examples/default/version', data=None, timeout=<object object>, cafile=None, capath=None, cadefault=False, context=None)"
p191
sg93
S'urlopen'
p192
sa(dp193
g70
S'/usr/local/Cellar/python@2/2.7.17_1/Frameworks/Python.framework/Versions/2.7/lib/python2.7/urllib2.py'
p194
sg72
(dp195
S'self'
p196
S'<urllib2.OpenerDirector instance>'
p197
sS'req'
p198
S'<urllib2.Request instance>'
p199
sS'data'
p200
S'None'
p201
sS'response'
p202
g115
sS'self._open'
p203
S'<bound method OpenerDirector._open of <urllib2.OpenerDirector instance>>'
p204
ssg78
I429
sg79
(dp205
I424
S'        meth_name = protocol+"_request"'
p206
sI425
S'        for processor in self.process_request.get(protocol, []):'
p207
sI426
S'            meth = getattr(processor, meth_name)'
p208
sI427
S'            req = meth(req)'
p209
sI428
S''
sI429
S'        response = self._open(req, data)'
p210
sI430
S''
sI431
S'        # post-process response'
p211
sI432
S'        meth_name = protocol+"_response"'
p212
sI433
S'        for processor in self.process_response.get(protocol, []):'
p213
ssg91
S"(self=<urllib2.OpenerDirector instance>, fullurl='http://web2py.com/examples/default/version', data=None, timeout=<object object>)"
p214
sg93
S'open'
p215
sa(dp216
g70
S'/usr/local/Cellar/python@2/2.7.17_1/Frameworks/Python.framework/Versions/2.7/lib/python2.7/urllib2.py'
p217
sg72
(dp218
S'req'
p219
S'<urllib2.Request instance>'
p220
ssg78
I447
sg79
(dp221
I448
S'        if result:'
p222
sI449
S'            return result'
p223
sI450
S''
sI451
S"        return self._call_chain(self.handle_open, 'unknown',"
p224
sI442
S'        if result:'
p225
sI443
S'            return result'
p226
sI444
S''
sI445
S'        protocol = req.get_type()'
p227
sI446
S'        result = self._call_chain(self.handle_open, protocol, protocol +'
p228
sI447
S"                                  '_open', req)"
p229
ssg91
S'(self=<urllib2.OpenerDirector instance>, req=<urllib2.Request instance>, data=None)'
p230
sg93
S'_open'
p231
sa(dp232
g70
S'/usr/local/Cellar/python@2/2.7.17_1/Frameworks/Python.framework/Versions/2.7/lib/python2.7/urllib2.py'
p233
sg72
(dp234
S'args'
p235
S'(<urllib2.Request instance>,)'
p236
sS'result'
p237
S'None'
p238
sS'func'
p239
S'<bound method HTTPHandler.http_open of <urllib2.HTTPHandler instance>>'
p240
ssg78
I407
sg79
(dp241
I402
S'        # could.  Otherwise, they return the response.'
p242
sI403
S'        handlers = chain.get(kind, ())'
p243
sI404
S'        for handler in handlers:'
p244
sI405
S'            func = getattr(handler, meth_name)'
p245
sI406
S''
sI407
S'            result = func(*args)'
p246
sI408
S'            if result is not None:'
p247
sI409
S'                return result'
p248
sI410
S''
sI411
S'    def open(self, fullurl, data=None, timeout=socket._GLOBAL_DEFAULT_TIMEOUT):'
p249
ssg91
S"(self=<urllib2.OpenerDirector instance>, chain={'file': [<urllib2.FileHandler instance>], 'ftp': [<urllib2.FTPHandler instance>], 'http': [<urllib2.ProxyHandler instance>, <urllib2.HTTPHandler instance>], 'https': [<urllib2.ProxyHandler instance>, <urllib2.HTTPSHandler instance>], 'unknown': [<urllib2.UnknownHandler instance>]}, kind='http', meth_name='http_open', *args=(<urllib2.Request instance>,))"
p250
sg93
S'_call_chain'
p251
sa(dp252
g70
S'/usr/local/Cellar/python@2/2.7.17_1/Frameworks/Python.framework/Versions/2.7/lib/python2.7/urllib2.py'
p253
sg72
(dp254
S'self'
p255
S'<urllib2.HTTPHandler instance>'
p256
sS'req'
p257
S'<urllib2.Request instance>'
p258
sS'global httplib'
p259
S"<module 'httplib' from '/usr/local/Cellar/python...ramework/Versions/2.7/lib/python2.7/httplib.pyc'>"
p260
sS'self.do_open'
p261
S'<bound method HTTPHandler.do_open of <urllib2.HTTPHandler instance>>'
p262
sS'httplib.HTTPConnection'
p263
S'<class httplib.HTTPConnection>'
p264
ssg78
I1228
sg79
(dp265
I1223
S''
sI1224
S''
sI1225
S'class HTTPHandler(AbstractHTTPHandler):'
p266
sI1226
S''
sI1227
S'    def http_open(self, req):'
p267
sI1228
S'        return self.do_open(httplib.HTTPConnection, req)'
p268
sI1229
S''
sI1230
S'    http_request = AbstractHTTPHandler.do_request_'
p269
sI1231
S''
sI1232
S"if hasattr(httplib, 'HTTPS'):"
p270
ssg91
S'(self=<urllib2.HTTPHandler instance>, req=<urllib2.Request instance>)'
p271
sg93
S'http_open'
p272
sa(dp273
g70
S'/usr/local/Cellar/python@2/2.7.17_1/Frameworks/Python.framework/Versions/2.7/lib/python2.7/urllib2.py'
p274
sg72
(dp275
S'h'
S'<httplib.HTTPConnection instance>'
p276
sS'buffering'
p277
g115
sS'r'
g115
sS'builtinTrue'
p278
S'True'
p279
sS'h.getresponse'
p280
S'<bound method HTTPConnection.getresponse of <httplib.HTTPConnection instance>>'
p281
ssg78
I1201
sg79
(dp282
I1196
S'        except socket.error, err: # XXX what error?'
p283
sI1197
S'            h.close()'
p284
sI1198
S'            raise URLError(err)'
p285
sI1199
S'        else:'
p286
sI1200
S'            try:'
p287
sI1201
S'                r = h.getresponse(buffering=True)'
p288
sI1202
S'            except TypeError: # buffering kw not supported'
p289
sI1203
S'                r = h.getresponse()'
p290
sI1204
S''
sI1205
S'        # Pick apart the HTTPResponse object to get the addinfourl'
p291
ssg91
S'(self=<urllib2.HTTPHandler instance>, http_class=<class httplib.HTTPConnection>, req=<urllib2.Request instance>, **http_conn_args={})'
p292
sg93
S'do_open'
p293
sa(dp294
g70
S'/usr/local/Cellar/python@2/2.7.17_1/Frameworks/Python.framework/Versions/2.7/lib/python2.7/httplib.py'
p295
sg72
(dp296
S'response.begin'
p297
S'<bound method HTTPResponse.begin of <httplib.HTTPResponse instance>>'
p298
sS'response'
p299
S'<httplib.HTTPResponse instance>'
p300
ssg78
I1148
sg79
(dp301
I1152
S'            if response.will_close:'
p302
sI1143
S'            #other response_classes.'
p303
sI1144
S'            kwds["buffering"] = True;'
p304
sI1145
S'        response = self.response_class(*args, **kwds)'
p305
sI1146
S''
sI1147
S'        try:'
p306
sI1148
S'            response.begin()'
p307
sI1149
S'            assert response.will_close != _UNKNOWN'
p308
sI1150
S'            self.__state = _CS_IDLE'
p309
sI1151
S''
ssg91
S'(self=<httplib.HTTPConnection instance>, buffering=True)'
p310
sg93
S'getresponse'
p311
sa(dp312
g70
S'/usr/local/Cellar/python@2/2.7.17_1/Frameworks/Python.framework/Versions/2.7/lib/python2.7/httplib.py'
p313
sg72
(dp314
S'status'
p315
g115
sS'reason'
p316
g115
sS'version'
p317
g115
sS'self'
p318
S'<httplib.HTTPResponse instance>'
p319
sS'self._read_status'
p320
S'<bound method HTTPResponse._read_status of <httplib.HTTPResponse instance>>'
p321
ssg78
I448
sg79
(dp322
I448
S'            version, status, reason = self._read_status()'
p323
sI449
S'            if status != CONTINUE:'
p324
sI450
S'                break'
p325
sI451
S'            # skip the header from the 100 response'
p326
sI452
S'            while True:'
p327
sI443
S"            # we've already started reading the response"
p328
sI444
S'            return'
p329
sI445
S''
sI446
S'        # read until we get a non-100 response'
p330
sI447
S'        while True:'
p331
ssg91
S'(self=<httplib.HTTPResponse instance>)'
p332
sg93
S'begin'
p333
sa(dp334
g70
S'/usr/local/Cellar/python@2/2.7.17_1/Frameworks/Python.framework/Versions/2.7/lib/python2.7/httplib.py'
p335
sg72
(dp336
S'global BadStatusLine'
p337
S"<class 'httplib.BadStatusLine'>"
p338
ssg78
I412
sg79
(dp339
I416
S'            try:'
p340
sI407
S'        if self.debuglevel > 0:'
p341
sI408
S'            print "reply:", repr(line)'
p342
sI409
S'        if not line:'
p343
sI410
S'            # Presumably, the server closed the connection before'
p344
sI411
S'            # sending a valid response.'
p345
sI412
S'            raise BadStatusLine("No status line received - the server has closed the connection")'
p346
sI413
S'        try:'
p347
sI414
S'            [version, status, reason] = line.split(None, 2)'
p348
sI415
S'        except ValueError:'
p349
ssg91
S'(self=<httplib.HTTPResponse instance>)'
p350
sg93
S'_read_status'
p351
sasS'pyver'
p352
S'Python 2.7.17: /usr/local/opt/python@2/bin/python2.7 (prefix: /usr/local/Cellar/python@2/2.7.17_1/Frameworks/Python.framework/Versions/2.7)'
p353
sS'session'
p354
g65
(S's\x11\x04\x00\x00<div><table><tr><td style="font-weight:bold;vertical-align:top;">authorized</td><td style="vertical-align:top;">:</td><td><div>True</div></td></tr><tr><td style="font-weight:bold;vertical-align:top;">check_version</td><td style="vertical-align:top;">:</td><td><div>False</div></td></tr><tr><td style="font-weight:bold;vertical-align:top;">hmac_key</td><td style="vertical-align:top;">:</td><td><div>2ff9b357-9a9a-4aa4-8626-7a485d4235c6</div></td></tr><tr><td style="font-weight:bold;vertical-align:top;">is_mobile</td><td style="vertical-align:top;">:</td><td><div>auto</div></td></tr><tr><td style="font-weight:bold;vertical-align:top;">last_time</td><td style="vertical-align:top;">:</td><td><div>1581683840.038406</div></td></tr><tr><td style="font-weight:bold;vertical-align:top;">pam_user</td><td style="vertical-align:top;">:</td><td><div>None</div></td></tr><tr><td style="font-weight:bold;vertical-align:top;">token</td><td style="vertical-align:top;">:</td><td><div>0d2f226c-2a4a-4d14-b7d3-84dc882193ec</div></td></tr></table></div>'
tRp355
sS'etype'
p356
S"<class 'httplib.BadStatusLine'>"
p357
sS'date'
p358
S'Fri Feb 14 13:37:33 2020'
p359
sS'response'
p360
g65
(S's\x82\x1e\x00\x00<div><table><tr><td style="font-weight:bold;vertical-align:top;">body</td><td style="vertical-align:top;">:</td><td><div>&lt;cStringIO.StringO object at 0x104dd26f0&gt;</div></td></tr><tr><td style="font-weight:bold;vertical-align:top;">cookies</td><td style="vertical-align:top;">:</td><td><div><table><tr><td style="font-weight:bold;vertical-align:top;">session_id_admin</td><td style="vertical-align:top;">:</td><td><div>127.0.0.1-ecd85f08-9be1-4a0b-b050-8d896748ede7<table><tr><td style="font-weight:bold;vertical-align:top;">comment</td><td style="vertical-align:top;">:</td><td><div></div></td></tr><tr><td style="font-weight:bold;vertical-align:top;">domain</td><td style="vertical-align:top;">:</td><td><div></div></td></tr><tr><td style="font-weight:bold;vertical-align:top;">expires</td><td style="vertical-align:top;">:</td><td><div></div></td></tr><tr><td style="font-weight:bold;vertical-align:top;">httponly</td><td style="vertical-align:top;">:</td><td><div></div></td></tr><tr><td style="font-weight:bold;vertical-align:top;">max-age</td><td style="vertical-align:top;">:</td><td><div></div></td></tr><tr><td style="font-weight:bold;vertical-align:top;">path</td><td style="vertical-align:top;">:</td><td><div>/</div></td></tr><tr><td style="font-weight:bold;vertical-align:top;">samesite</td><td style="vertical-align:top;">:</td><td><div></div></td></tr><tr><td style="font-weight:bold;vertical-align:top;">secure</td><td style="vertical-align:top;">:</td><td><div></div></td></tr><tr><td style="font-weight:bold;vertical-align:top;">version</td><td style="vertical-align:top;">:</td><td><div></div></td></tr></table></div></td></tr></table></div></td></tr><tr><td style="font-weight:bold;vertical-align:top;">delimiters</td><td style="vertical-align:top;">:</td><td><div><table><tr><td><div>{{</div></td></tr><tr><td><div>}}</div></td></tr></table></div></td></tr><tr><td style="font-weight:bold;vertical-align:top;">files</td><td style="vertical-align:top;">:</td><td><div><table><tr><td><div>/admin/static/_2.18.5/plugin_multiselect/jquery.multi-select.js</div></td></tr><tr><td><div>/admin/static/_2.18.5/plugin_multiselect/multi-select.css</div></td></tr><tr><td><div>/admin/static/_2.18.5/plugin_multiselect/start.js</div></td></tr><tr><td><div>/admin/static/_2.18.5/plugin_statebutton/js/bootstrap-switch.js</div></td></tr><tr><td><div>/admin/static/_2.18.5/plugin_statebutton/css/bootstrap-switch.css</div></td></tr></table></div></td></tr><tr><td style="font-weight:bold;vertical-align:top;">flash</td><td style="vertical-align:top;">:</td><td><div></div></td></tr><tr><td style="font-weight:bold;vertical-align:top;">form_label_separator</td><td style="vertical-align:top;">:</td><td><div>: </div></td></tr><tr><td style="font-weight:bold;vertical-align:top;">formstyle</td><td style="vertical-align:top;">:</td><td><div>table3cols</div></td></tr><tr><td style="font-weight:bold;vertical-align:top;">generic_patterns</td><td style="vertical-align:top;">:</td><td><div><table><tr><td><div>*</div></td></tr></table></div></td></tr><tr><td style="font-weight:bold;vertical-align:top;">headers</td><td style="vertical-align:top;">:</td><td><div><table><tr><td style="font-weight:bold;vertical-align:top;">X-Powered-By</td><td style="vertical-align:top;">:</td><td><div>web2py</div></td></tr></table></div></td></tr><tr><td style="font-weight:bold;vertical-align:top;">menu</td><td style="vertical-align:top;">:</td><td><div><table><tr><td><div><table><tr><td><div>sito</div></td></tr><tr><td><div>False</div></td></tr><tr><td><div>/admin/default/site</div></td></tr></table></div></td></tr><tr><td><div><table><tr><td><div>aiuto</div></td></tr><tr><td><div>False</div></td></tr><tr><td><div>/examples/default/documentation</div></td></tr></table></div></td></tr><tr><td><div><table><tr><td><div>uscita</div></td></tr><tr><td><div>False</div></td></tr><tr><td><div>/admin/default/logout</div></td></tr></table></div></td></tr><tr><td><div><table><tr><td><div>Debug</div></td></tr><tr><td><div>False</div></td></tr><tr><td><div>/admin/debug/interact</div></td></tr></table></div></td></tr></table></div></td></tr><tr><td style="font-weight:bold;vertical-align:top;">meta</td><td style="vertical-align:top;">:</td><td><div><table></table></div></td></tr><tr><td style="font-weight:bold;vertical-align:top;">models_to_run</td><td style="vertical-align:top;">:</td><td><div><table><tr><td><div>^\\w+\\.py$</div></td></tr><tr><td><div>^default/\\w+\\.py$</div></td></tr><tr><td><div>^default/check_version/\\w+\\.py$</div></td></tr></table></div></td></tr><tr><td style="font-weight:bold;vertical-align:top;">postprocessing</td><td style="vertical-align:top;">:</td><td><div><table></table></div></td></tr><tr><td style="font-weight:bold;vertical-align:top;">session_client</td><td style="vertical-align:top;">:</td><td><div>127.0.0.1</div></td></tr><tr><td style="font-weight:bold;vertical-align:top;">session_cookie_compression_level</td><td style="vertical-align:top;">:</td><td><div>None</div></td></tr><tr><td style="font-weight:bold;vertical-align:top;">session_cookie_expires</td><td style="vertical-align:top;">:</td><td><div>None</div></td></tr><tr><td style="font-weight:bold;vertical-align:top;">session_data_name</td><td style="vertical-align:top;">:</td><td><div>session_data_admin</div></td></tr><tr><td style="font-weight:bold;vertical-align:top;">session_file</td><td style="vertical-align:top;">:</td><td><div>&lt;open file &#x27;/Users/jonathan/Desktop/Programmi/web2py/applications/admin/sessions/07e/0ea/127.0.0.1-ecd85f08-9be1-4a0b-b050-8d896748ede7&#x27;, mode &#x27;rb+&#x27; at 0x10c131db0&gt;</div></td></tr><tr><td style="font-weight:bold;vertical-align:top;">session_filename</td><td style="vertical-align:top;">:</td><td><div>/Users/jonathan/Desktop/Programmi/web2py/applications/admin/sessions/127.0.0.1-ecd85f08-9be1-4a0b-b050-8d896748ede7</div></td></tr><tr><td style="font-weight:bold;vertical-align:top;">session_hash</td><td style="vertical-align:top;">:</td><td><div>468f932ddf300891dd9a3f2397aa9fef</div></td></tr><tr><td style="font-weight:bold;vertical-align:top;">session_id</td><td style="vertical-align:top;">:</td><td><div>127.0.0.1-ecd85f08-9be1-4a0b-b050-8d896748ede7</div></td></tr><tr><td style="font-weight:bold;vertical-align:top;">session_id_name</td><td style="vertical-align:top;">:</td><td><div>session_id_admin</div></td></tr><tr><td style="font-weight:bold;vertical-align:top;">session_locked</td><td style="vertical-align:top;">:</td><td><div>False</div></td></tr><tr><td style="font-weight:bold;vertical-align:top;">session_masterapp</td><td style="vertical-align:top;">:</td><td><div>admin</div></td></tr><tr><td style="font-weight:bold;vertical-align:top;">session_new</td><td style="vertical-align:top;">:</td><td><div>False</div></td></tr><tr><td style="font-weight:bold;vertical-align:top;">session_storage_type</td><td style="vertical-align:top;">:</td><td><div>file</div></td></tr><tr><td style="font-weight:bold;vertical-align:top;">static_version</td><td style="vertical-align:top;">:</td><td><div>2.18.5</div></td></tr><tr><td style="font-weight:bold;vertical-align:top;">static_version_urls</td><td style="vertical-align:top;">:</td><td><div>True</div></td></tr><tr><td style="font-weight:bold;vertical-align:top;">status</td><td style="vertical-align:top;">:</td><td><div>200</div></td></tr><tr><td style="font-weight:bold;vertical-align:top;">subtitle</td><td style="vertical-align:top;">:</td><td><div>admin</div></td></tr><tr><td style="font-weight:bold;vertical-align:top;">title</td><td style="vertical-align:top;">:</td><td><div>check_version </div></td></tr><tr><td style="font-weight:bold;vertical-align:top;">view</td><td style="vertical-align:top;">:</td><td><div>default/check_version.html</div></td></tr></table></div>'
tRp361
sS'locals'
p362
(dp363
g52
S"''"
p364
sS'self'
p365
S'<httplib.HTTPResponse instance>'
p366
sssS'traceback'
p367
S'Traceback (most recent call last):\n  File "/Users/jonathan/Desktop/Programmi/web2py/gluon/restricted.py", line 219, in restricted\n    exec(ccode, environment)\n  File "/Users/jonathan/Desktop/Programmi/web2py/applications/admin/controllers/default.py", line 2021, in <module>\n  File "/Users/jonathan/Desktop/Programmi/web2py/gluon/globals.py", line 421, in <lambda>\n    self._caller = lambda f: f()\n  File "/Users/jonathan/Desktop/Programmi/web2py/applications/admin/controllers/default.py", line 167, in check_version\n    WEB2PY_VERSION_URL)\n  File "/Users/jonathan/Desktop/Programmi/web2py/gluon/admin.py", line 341, in check_new_version\n    version = to_native(urlopen(version_url).read())\n  File "/usr/local/Cellar/python@2/2.7.17_1/Frameworks/Python.framework/Versions/2.7/lib/python2.7/urllib2.py", line 154, in urlopen\n    return opener.open(url, data, timeout)\n  File "/usr/local/Cellar/python@2/2.7.17_1/Frameworks/Python.framework/Versions/2.7/lib/python2.7/urllib2.py", line 429, in open\n    response = self._open(req, data)\n  File "/usr/local/Cellar/python@2/2.7.17_1/Frameworks/Python.framework/Versions/2.7/lib/python2.7/urllib2.py", line 447, in _open\n    \'_open\', req)\n  File "/usr/local/Cellar/python@2/2.7.17_1/Frameworks/Python.framework/Versions/2.7/lib/python2.7/urllib2.py", line 407, in _call_chain\n    result = func(*args)\n  File "/usr/local/Cellar/python@2/2.7.17_1/Frameworks/Python.framework/Versions/2.7/lib/python2.7/urllib2.py", line 1228, in http_open\n    return self.do_open(httplib.HTTPConnection, req)\n  File "/usr/local/Cellar/python@2/2.7.17_1/Frameworks/Python.framework/Versions/2.7/lib/python2.7/urllib2.py", line 1201, in do_open\n    r = h.getresponse(buffering=True)\n  File "/usr/local/Cellar/python@2/2.7.17_1/Frameworks/Python.framework/Versions/2.7/lib/python2.7/httplib.py", line 1148, in getresponse\n    response.begin()\n  File "/usr/local/Cellar/python@2/2.7.17_1/Frameworks/Python.framework/Versions/2.7/lib/python2.7/httplib.py", line 448, in begin\n    version, status, reason = self._read_status()\n  File "/usr/local/Cellar/python@2/2.7.17_1/Frameworks/Python.framework/Versions/2.7/lib/python2.7/httplib.py", line 412, in _read_status\n    raise BadStatusLine("No status line received - the server has closed the connection")\nBadStatusLine: No status line received - the server has closed the connection\n'
p368
s.